Certificate:
    Data:
        Version: 3 (0x2)
        Serial Number:
            cc:0c:d5:09:54:19:79:dd
    Signature Algorithm: sha512WithRSAEncryption
        Issuer: C=UK, ST=Sussex, L=Brighton, O=semantico, CN=semantico Certificate Authority 2013
        Validity
            Not Before: Jun 12 08:39:09 2018 GMT
            Not After : Jun  9 08:39:09 2028 GMT
        Subject: C=UK, ST=Sussex, L=Brighton, O=semantico, CN=ITM-OVUM-production-sams-client-ca2013
        Subject Public Key Info:
            Public Key Algorithm: rsaEncryption
                Public-Key: (2048 bit)
                Modulus:
                    00:b0:1e:ac:4e:68:be:94:df:3c:29:89:d0:29:c9:
                    5f:59:01:dd:c6:f5:4e:51:aa:fe:1e:97:d6:0a:b9:
                    c1:1d:4e:bc:7c:43:b1:ba:9e:01:a9:9b:7d:29:94:
                    0d:b2:7d:5d:09:c9:72:1d:4c:86:8e:70:88:34:f5:
                    ff:05:f5:c9:b2:a6:32:8d:f5:c8:d2:11:88:bb:23:
                    f2:8d:d8:f1:c0:45:7a:db:75:2e:1a:21:f6:d5:ab:
                    11:cb:5d:21:83:c1:72:2d:b9:94:ee:75:7f:d9:d0:
                    c0:4b:c8:fb:f4:b4:a5:ea:d2:41:04:98:7a:a4:7d:
                    fc:7b:b4:e7:53:ca:f5:7d:8c:c1:ee:d0:77:02:fe:
                    9f:e7:0f:c6:b1:ca:c6:27:ba:4f:94:6f:8a:1b:9f:
                    26:56:35:47:ea:a7:53:e2:25:a7:9b:d6:55:f0:34:
                    5d:fa:dc:9b:a1:0e:9d:c7:89:68:42:98:05:40:00:
                    0c:bb:72:eb:10:17:24:61:6b:ea:71:b2:8f:5d:15:
                    be:81:63:9e:7e:ef:b7:08:94:dc:2c:ee:0b:ea:6b:
                    b9:4b:f3:6d:0d:e0:ca:cc:aa:6c:ff:0c:ec:cc:dc:
                    10:c2:ba:de:0a:21:3d:17:f5:e4:fa:4e:d4:37:ba:
                    46:c9:ea:c4:a1:c4:44:d2:60:c8:87:96:fd:b6:59:
                    64:25
                Exponent: 65537 (0x10001)
        X509v3 extensions:
            X509v3 Basic Constraints: 
                CA:FALSE
            Netscape Comment: 
                OpenSSL Generated Certificate
            X509v3 Subject Key Identifier: 
                DB:D6:92:C3:AA:43:6D:96:FC:85:DA:99:B8:D9:3A:D7:22:D0:0F:5F
            X509v3 Authority Key Identifier: 
                keyid:A8:63:12:69:D4:48:CF:0F:25:71:0D:57:7E:34:2F:5B:3E:D5:22:F3
                DirName:/C=UK/ST=Sussex/L=Brighton/O=semantico/CN=semantico Certificate Authority 2013
                serial:CC:0C:D5:09:54:19:72:41

            X509v3 Subject Alternative Name: 
                DNS:ITM-OVUM-production-sams-client-ca2013
    Signature Algorithm: sha512WithRSAEncryption
         9a:26:75:b8:f9:e7:d5:c8:9f:0f:1d:a2:e8:ff:6d:55:a4:96:
         88:9e:76:fc:9a:ab:01:7d:49:3e:0f:13:34:a6:05:b5:d8:a2:
         c5:64:15:01:6c:ab:0c:7d:84:3a:88:68:cd:1e:3e:c8:c3:88:
         f3:a8:29:27:6a:24:71:dd:85:40:fc:60:74:52:a1:3f:e4:0f:
         a4:c8:20:22:64:eb:7a:56:e8:a0:07:10:ee:ba:b3:cd:35:8e:
         38:b9:7d:a1:d5:3c:d5:2c:fe:cb:d6:81:aa:bf:2a:81:2f:fa:
         bc:af:7e:3e:ed:21:b8:58:b8:c0:0f:49:47:47:7f:b0:25:76:
         d7:83:5c:ca:a2:88:82:df:b3:59:55:62:14:b8:a5:a7:de:b0:
         4f:f1:3a:eb:de:d2:5f:6a:85:80:51:25:33:78:d2:af:7b:47:
         51:19:7e:a1:fe:dd:52:a1:0c:f3:d3:11:8c:7f:4d:55:f4:86:
         bc:0e:c7:11:b8:d2:b7:ef:65:f3:ae:1e:e7:49:e6:49:84:0a:
         77:40:d1:9a:3e:19:61:51:f0:4f:c7:fa:61:73:cc:1f:40:a5:
         df:4b:c3:fc:5f:ac:6f:65:7a:c6:5c:0b:ab:3c:11:96:d4:e5:
         5f:64:4e:34:f9:e4:b4:19:4f:8a:9f:97:fc:bb:b1:57:bc:07:
         6f:eb:d1:47
-----BEGIN CERTIFICATE-----
MIIEpzCCA4+gAwIBAgIJAMwM1QlUGXndMA0GCSqGSIb3DQEBDQUAMHQxCzAJBgNV
BAYTAlVLMQ8wDQYDVQQIEwZTdXNzZXgxETAPBgNVBAcTCEJyaWdodG9uMRIwEAYD
VQQKEwlzZW1hbnRpY28xLTArBgNVBAMTJHNlbWFudGljbyBDZXJ0aWZpY2F0ZSBB
dXRob3JpdHkgMjAxMzAeFw0xODA2MTIwODM5MDlaFw0yODA2MDkwODM5MDlaMHYx
CzAJBgNVBAYTAlVLMQ8wDQYDVQQIEwZTdXNzZXgxETAPBgNVBAcTCEJyaWdodG9u
MRIwEAYDVQQKEwlzZW1hbnRpY28xLzAtBgNVBAMTJklUTS1PVlVNLXByb2R1Y3Rp
b24tc2Ftcy1jbGllbnQtY2EyMDEzMIIBIjANBgkqhkiG9w0BAQEFAAOCAQ8AMIIB
CgKCAQEAsB6sTmi+lN88KYnQKclfWQHdxvVOUar+HpfWCrnBHU68fEOxup4BqZt9
KZQNsn1dCclyHUyGjnCINPX/BfXJsqYyjfXI0hGIuyPyjdjxwEV623UuGiH21asR
y10hg8FyLbmU7nV/2dDAS8j79LSl6tJBBJh6pH38e7TnU8r1fYzB7tB3Av6f5w/G
scrGJ7pPlG+KG58mVjVH6qdT4iWnm9ZV8DRd+tyboQ6dx4loQpgFQAAMu3LrEBck
YWvqcbKPXRW+gWOefu+3CJTcLO4L6mu5S/NtDeDKzKps/wzszNwQwrreCiE9F/Xk
+k7UN7pGyerEocRE0mDIh5b9tllkJQIDAQABo4IBODCCATQwCQYDVR0TBAIwADAs
BglghkgBhvhCAQ0EHxYdT3BlblNTTCBHZW5lcmF0ZWQgQ2VydGlmaWNhdGUwHQYD
VR0OBBYEFNvWksOqQ22W/IXambjZOtci0A9fMIGmBgNVHSMEgZ4wgZuAFKhjEmnU
SM8PJXENV340L1s+1SLzoXikdjB0MQswCQYDVQQGEwJVSzEPMA0GA1UECBMGU3Vz
c2V4MREwDwYDVQQHEwhCcmlnaHRvbjESMBAGA1UEChMJc2VtYW50aWNvMS0wKwYD
VQQDEyRzZW1hbnRpY28gQ2VydGlmaWNhdGUgQXV0aG9yaXR5IDIwMTOCCQDMDNUJ
VBlyQTAxBgNVHREEKjAogiZJVE0tT1ZVTS1wcm9kdWN0aW9uLXNhbXMtY2xpZW50
LWNhMjAxMzANBgkqhkiG9w0BAQ0FAAOCAQEAmiZ1uPnn1cifDx2i6P9tVaSWiJ52
/JqrAX1JPg8TNKYFtdiixWQVAWyrDH2EOohozR4+yMOI86gpJ2okcd2FQPxgdFKh
P+QPpMggImTrelbooAcQ7rqzzTWOOLl9odU81Sz+y9aBqr8qgS/6vK9+Pu0huFi4
wA9JR0d/sCV214NcyqKIgt+zWVViFLilp96wT/E6697SX2qFgFElM3jSr3tHURl+
of7dUqEM89MRjH9NVfSGvA7HEbjSt+9l864e50nmSYQKd0DRmj4ZYVHwT8f6YXPM
H0Cl30vD/F+sb2V6xlwLqzwRltTlX2RONPnktBlPip+X/LuxV7wHb+vRRw==
-----END CERTIFICATE-----
-----BEGIN RSA PRIVATE KEY-----
MIIEowIBAAKCAQEAsB6sTmi+lN88KYnQKclfWQHdxvVOUar+HpfWCrnBHU68fEOx
up4BqZt9KZQNsn1dCclyHUyGjnCINPX/BfXJsqYyjfXI0hGIuyPyjdjxwEV623Uu
GiH21asRy10hg8FyLbmU7nV/2dDAS8j79LSl6tJBBJh6pH38e7TnU8r1fYzB7tB3
Av6f5w/GscrGJ7pPlG+KG58mVjVH6qdT4iWnm9ZV8DRd+tyboQ6dx4loQpgFQAAM
u3LrEBckYWvqcbKPXRW+gWOefu+3CJTcLO4L6mu5S/NtDeDKzKps/wzszNwQwrre
CiE9F/Xk+k7UN7pGyerEocRE0mDIh5b9tllkJQIDAQABAoIBAGKk23eTXWN+4XCW
mvw8qOXukKxWS0ac0naKLr2VKx/iMNodBFf1FhNMXr9CCKX3Z3wK05qreRYg23lm
ay+Iai9gvSIcDx3x6jZ/POTMJSO/BsASkv7aFSm6Bl50TEhCulP4BP3G3BRAwuPv
r4dxAxlSKE6NpOurERaszYB2RifKFuug+6SZWP3z9ZStq9mp+yKj+NzieZz9fKmW
oshRZaIzJ9jxrH/NPiDW3VXn13mZqHlOFOEEObLQd7wh3L4MuPl/cAfxLa+a7f13
7PafPJ/CtmlPgWFW4Tr3Q2xo0a9cNjlMdiQyMdXxeTP3GYi1uCuohRPg9jekDC3r
yXEgtYECgYEA6rCdAgrc6O5LgppzKrp/YiPfV7fWAJy2hPs3MAn6OByIH8Z0Lw6z
n/haJMhNAY44fn9fy9k4N98jFQO2DRIf4pqB/V0dXLTOTmtm3b7ca78uxIi6I8sB
kYMk+11TP3VPexDDmJ16qp7bdB3uUaO7fgaHnOUoa++5g/xnRGbKZyECgYEAwByX
4DFVbk5W+/62+ZNIRTufLH2bz9sMDZmZIaekbisEd3RQjVBzOvSubotb+HJ8yhTD
49rZlHoP6vwW0C+S2VnpzDwjdWZXEg/iUHvj5PuaMwG2dA5ADkrrbJIfWHciww72
HEPwszyUWRGoSNVgSJxTyToxJGBVJ8hUOVmH0IUCgYAbswKk9hFCsLVa0c3b8i0M
sT0wBjOM2PI12cyWr+bHbp6mWW7nCu4qaE6DXtyv3VBPpcrxrU6UUZK7bTe0bTo0
LZZACBhqE7Dx0n1OmLM9SFBFw/lsNg6WVQstW8Nyju71kHH1dki/EIbIOqwhGJkN
c8nXu7g8nQuhR04M5bDn4QKBgEzhZHoo5ApvuWnBRpJcOZjTQmD4p4koHQu4Q0rv
nuMjvfbcCnxzDJo0XzYH+TdVAdGRO8+MvnQn4QTl+283CqqGzASasIoD+aZVyvjw
i4QQmGX/MngBV+sgWlSpqXeqvbOX4i/vlHz2Klv2sATtt0l3niQycIYhMxLnnaUR
ykNNAoGBAJjB+XgmITL5SZZAYdpm3hDyi/U/OB1RHJiNWkRNfsD/acWr1WEUUmuQ
WkVIT1lH6+UYzR/xidFI3U1F18NJwxcZktpTBHwp50kOKEHgR3GZVwxMR+YXzDEQ
nvKgsOvIM6uoorVxGNxv7Re4Hpn/DGW4W1NXkQd4iYgJMhcXxl7D
-----END RSA PRIVATE KEY-----
