Certificate:
    Data:
        Version: 3 (0x2)
        Serial Number:
            cc:0c:d5:09:54:19:79:dc
    Signature Algorithm: sha512WithRSAEncryption
        Issuer: C=UK, ST=Sussex, L=Brighton, O=semantico, CN=semantico Certificate Authority 2013
        Validity
            Not Before: Jun 12 08:38:55 2018 GMT
            Not After : Jun  9 08:38:55 2028 GMT
        Subject: C=UK, ST=Sussex, L=Brighton, O=semantico, CN=ITM-OVUM-testing-sams-client-ca2013
        Subject Public Key Info:
            Public Key Algorithm: rsaEncryption
                Public-Key: (2048 bit)
                Modulus:
                    00:dc:92:ca:7f:25:61:81:25:21:9d:ed:e5:8e:7e:
                    53:16:de:79:bb:44:5a:0e:f5:69:b4:44:ae:5b:ff:
                    41:a6:97:ba:46:c0:46:b9:9d:cc:ba:67:6d:9c:31:
                    79:6a:e1:2d:5f:1a:89:1a:7a:2f:4b:cb:f9:d3:d4:
                    96:b9:6f:81:61:5b:c2:21:8c:cb:af:05:7a:43:5b:
                    55:69:a8:19:96:34:c7:be:9f:e3:c8:39:7c:ab:79:
                    8a:86:c8:ac:d0:73:13:ed:0c:37:f1:54:34:d3:d8:
                    a9:09:a1:f5:db:d0:b5:95:51:1e:46:35:01:1f:bb:
                    b3:ac:59:8a:70:35:70:90:3b:49:c7:96:fb:f5:99:
                    b2:42:b9:aa:bf:9b:cd:ec:c9:cf:50:93:ea:23:0a:
                    36:7b:ec:e2:51:52:45:ad:72:16:c9:f8:60:c1:ac:
                    db:08:37:76:a1:0e:b5:15:2a:2e:77:d6:96:51:04:
                    a6:57:4a:6d:b5:32:4f:fe:6c:30:4e:20:74:02:f5:
                    38:4b:5b:23:da:59:f4:8f:ba:da:06:32:e0:e8:d0:
                    06:87:cd:02:6e:ff:4b:22:89:33:36:24:75:fc:7f:
                    0c:22:df:32:66:b2:2e:35:bd:dc:87:ae:61:41:e6:
                    0f:73:7f:3e:f3:b1:10:b7:68:cc:66:5f:c5:37:e4:
                    00:f7
                Exponent: 65537 (0x10001)
        X509v3 extensions:
            X509v3 Basic Constraints:
                CA:FALSE
            Netscape Comment:
                OpenSSL Generated Certificate
            X509v3 Subject Key Identifier:
                5E:3D:1F:19:DC:FA:8C:60:6D:4A:44:F0:B7:5B:CB:E2:BC:1C:CD:25
            X509v3 Authority Key Identifier:
                keyid:A8:63:12:69:D4:48:CF:0F:25:71:0D:57:7E:34:2F:5B:3E:D5:22:F3
                DirName:/C=UK/ST=Sussex/L=Brighton/O=semantico/CN=semantico Certificate Authority 2013
                serial:CC:0C:D5:09:54:19:72:41

            X509v3 Subject Alternative Name:
                DNS:ITM-OVUM-testing-sams-client-ca2013
    Signature Algorithm: sha512WithRSAEncryption
         81:0d:8a:2b:db:d7:75:2e:2f:3c:b0:65:f4:aa:1a:bd:2f:5a:
         c1:55:cd:95:82:ae:96:5d:05:57:71:6f:73:35:e1:b0:a6:e5:
         9f:c0:eb:90:fe:64:60:9d:8a:7e:b8:9f:36:d8:9d:3e:55:65:
         3e:f6:60:0b:c6:1a:6e:13:a2:cf:4c:da:ec:29:01:ce:aa:46:
         a3:9c:e6:85:8b:93:c8:68:ba:ad:b6:8e:e2:7d:c6:75:3d:8d:
         0f:04:12:3b:95:07:97:97:51:1c:07:f3:d0:9d:bb:43:fd:22:
         6f:aa:7b:b3:24:e7:20:90:16:ff:b7:da:62:52:1f:ad:ab:24:
         07:0b:c5:60:33:ac:38:56:9c:e3:81:17:d8:be:1e:39:df:32:
         cc:dc:ef:38:88:bf:38:2b:74:eb:89:e6:2e:a9:93:7e:41:4c:
         f4:a4:86:a3:82:66:66:c8:e3:d1:12:9b:f2:ab:a2:69:d9:84:
         d2:4f:46:2b:6e:f1:d2:c1:26:a3:7f:f2:83:ec:cd:7a:fb:d1:
         f0:41:81:26:04:7f:5b:98:39:3e:c7:ba:c4:78:2a:9c:e9:7e:
         53:6d:5f:f9:29:42:56:36:9b:e1:36:b4:8c:38:e1:dd:c1:5c:
         21:08:e3:8f:d5:48:06:3d:d7:82:b2:40:14:59:18:df:5c:8a:
         7e:8f:d5:03
-----BEGIN CERTIFICATE-----
MIIEoTCCA4mgAwIBAgIJAMwM1QlUGXncMA0GCSqGSIb3DQEBDQUAMHQxCzAJBgNV
BAYTAlVLMQ8wDQYDVQQIEwZTdXNzZXgxETAPBgNVBAcTCEJyaWdodG9uMRIwEAYD
VQQKEwlzZW1hbnRpY28xLTArBgNVBAMTJHNlbWFudGljbyBDZXJ0aWZpY2F0ZSBB
dXRob3JpdHkgMjAxMzAeFw0xODA2MTIwODM4NTVaFw0yODA2MDkwODM4NTVaMHMx
CzAJBgNVBAYTAlVLMQ8wDQYDVQQIEwZTdXNzZXgxETAPBgNVBAcTCEJyaWdodG9u
MRIwEAYDVQQKEwlzZW1hbnRpY28xLDAqBgNVBAMTI0lUTS1PVlVNLXRlc3Rpbmct
c2Ftcy1jbGllbnQtY2EyMDEzMIIBIjANBgkqhkiG9w0BAQEFAAOCAQ8AMIIBCgKC
AQEA3JLKfyVhgSUhne3ljn5TFt55u0RaDvVptESuW/9Bppe6RsBGuZ3MumdtnDF5
auEtXxqJGnovS8v509SWuW+BYVvCIYzLrwV6Q1tVaagZljTHvp/jyDl8q3mKhsis
0HMT7Qw38VQ009ipCaH129C1lVEeRjUBH7uzrFmKcDVwkDtJx5b79ZmyQrmqv5vN
7MnPUJPqIwo2e+ziUVJFrXIWyfhgwazbCDd2oQ61FSoud9aWUQSmV0pttTJP/mww
TiB0AvU4S1sj2ln0j7raBjLg6NAGh80Cbv9LIokzNiR1/H8MIt8yZrIuNb3ch65h
QeYPc38+87EQt2jMZl/FN+QA9wIDAQABo4IBNTCCATEwCQYDVR0TBAIwADAsBglg
hkgBhvhCAQ0EHxYdT3BlblNTTCBHZW5lcmF0ZWQgQ2VydGlmaWNhdGUwHQYDVR0O
BBYEFF49Hxnc+oxgbUpE8Ldby+K8HM0lMIGmBgNVHSMEgZ4wgZuAFKhjEmnUSM8P
JXENV340L1s+1SLzoXikdjB0MQswCQYDVQQGEwJVSzEPMA0GA1UECBMGU3Vzc2V4
MREwDwYDVQQHEwhCcmlnaHRvbjESMBAGA1UEChMJc2VtYW50aWNvMS0wKwYDVQQD
EyRzZW1hbnRpY28gQ2VydGlmaWNhdGUgQXV0aG9yaXR5IDIwMTOCCQDMDNUJVBly
QTAuBgNVHREEJzAlgiNJVE0tT1ZVTS10ZXN0aW5nLXNhbXMtY2xpZW50LWNhMjAx
MzANBgkqhkiG9w0BAQ0FAAOCAQEAgQ2KK9vXdS4vPLBl9KoavS9awVXNlYKull0F
V3FvczXhsKbln8DrkP5kYJ2KfrifNtidPlVlPvZgC8YabhOiz0za7CkBzqpGo5zm
hYuTyGi6rbaO4n3GdT2NDwQSO5UHl5dRHAfz0J27Q/0ib6p7syTnIJAW/7faYlIf
raskBwvFYDOsOFac44EX2L4eOd8yzNzvOIi/OCt064nmLqmTfkFM9KSGo4JmZsjj
0RKb8quiadmE0k9GK27x0sEmo3/yg+zNevvR8EGBJgR/W5g5Pse6xHgqnOl+U21f
+SlCVjab4Ta0jDjh3cFcIQjjj9VIBj3XgrJAFFkY31yKfo/VAw==
-----END CERTIFICATE-----
-----BEGIN RSA PRIVATE KEY-----
MIIEowIBAAKCAQEA3JLKfyVhgSUhne3ljn5TFt55u0RaDvVptESuW/9Bppe6RsBG
uZ3MumdtnDF5auEtXxqJGnovS8v509SWuW+BYVvCIYzLrwV6Q1tVaagZljTHvp/j
yDl8q3mKhsis0HMT7Qw38VQ009ipCaH129C1lVEeRjUBH7uzrFmKcDVwkDtJx5b7
9ZmyQrmqv5vN7MnPUJPqIwo2e+ziUVJFrXIWyfhgwazbCDd2oQ61FSoud9aWUQSm
V0pttTJP/mwwTiB0AvU4S1sj2ln0j7raBjLg6NAGh80Cbv9LIokzNiR1/H8MIt8y
ZrIuNb3ch65hQeYPc38+87EQt2jMZl/FN+QA9wIDAQABAoIBAQDXleWzxh558ofb
62ReFJwzkvkaDuGTE0zgc+yTYHaTVGMtucqmq1QpsOOSMU0CKNqGxNHSfi/x/ojN
AVDcJ98mAGBLGGkQRONOKFvgK/vuMuI0L+Sbk4yFsQKzYDqAdqm4HCQljO8hS/dT
wegik+iW67USW8YgdP5U6yODLsg5PtiEyHK38MWdl9KowMVP+Y+XWWUGk/ylZ5Zm
mEFyW0TcLIvlPzoRfOE51F3CbjYgUNzvyOQ56/2mu8UGHjZNVSaG8XJVOfZRyhu4
kwKfkuVDDGufiT/RJ/tyaYcgdfSyEBtC7E2V44N+xAr+SIaakJsCwBdGhfcuZIaM
qc32MwDJAoGBAPkEB7X+oARKlGne7tMIIPIlYx1mt5cCf4Qg4bSTMief4mr3d240
cU+Xyu5y2k2jMDNlwB5LC/FpDGs4NF3KOKDWLt0+4p+uDv/QOiSdel5R7MRpVc3e
n/GCTInHyPl6sITuHtyp7O+ddSo5/Vu/C7DwYVT1OU9SfiH6Lz4hyeJDAoGBAOLC
imlWODEOIgPkSXD7EaGzPuoDu7tSIc4+g1OWxZk3a7K6dChuYJvgf1afg7k05CsV
m6YF1zlXEKD/OmX/ks9+YoIj8wx/MiKlWKiDiR6XcMYjQg6+KnkfDE8qKeRxEOC5
mlZodWM57EPQKUpmSu8keEOok57k+McfBsXngp09AoGAR6ktPuajzhhYVY9eU0TH
lmfD+jYRJ1gEslV0Hq8tg9GzKu1EZWaaJTmdoLlUsXsA6AmkHBOkwDhm5oQqLcOA
QGji27C5LxK8JkoaMWdQS8xvwqY9lx02Eh5ZQF1KLOFt4xNTtlUAZoR9r0U48Cou
hyDmIbjgYT9wJP8GkW7P1lkCgYAijijPgo8PkqrGUwyKBgiazpjgym7aTdrO9iHH
JCu6fIKR+u3ml2NrfZuKFMba+19l3WYZt7wjhcwH7Lz2fCrgKc9TK61HEz8NnorT
KzBDFCrgVtEjNAF+8adLjQ5TPJOo2z/UuRhiZZpGfzs7ljkHFlSpYtAUH6p1lZnP
oMb7tQKBgCGe2TbKtKaGjDpH0qyulpaxST4gxs2aOwJwyCbLLA4dX6urmwtCPFs5
7uFJZGwoxygHGaCLQtIwLw6wY0vrPRvCCFNNvM4sYH+9EOvPzr/p4uJGj3C743sy
L/Vgqd8JrQ7qG88aWvS9J7ZOj+x+vtFTQVDeE2ihfmd6+LG8/IWA
-----END RSA PRIVATE KEY-----